target datalayout = "e-m:e-p270:32:32-p271:32:32-p272:64:64-i64:64-i128:128-f80:128-n8:16:32:64-S128"
target triple = "x86_64-pc-linux-gnu"

@proto_register_yami.ett = internal global [4 x ptr] [ptr @ett_yami, ptr @ett_yami_msg_hdr, ptr @ett_yami_msg_data, ptr @ett_yami_param], align 16
@.str.37 = private unnamed_addr constant [14 x i8] c"YAMI Protocol\00", align 1
@.str.38 = private unnamed_addr constant [5 x i8] c"YAMI\00", align 1
@.str.39 = private unnamed_addr constant [5 x i8] c"yami\00", align 1
@proto_yami = internal global i32 0, align 4
@.str.40 = private unnamed_addr constant [10 x i8] c"desegment\00", align 1
@.str.41 = private unnamed_addr constant [56 x i8] c"Reassemble YAMI messages spanning multiple TCP segments\00", align 1
@.str.42 = private unnamed_addr constant [204 x i8] c"Whether the YAMI dissector should reassemble messages spanning multiple TCP segments.To use this option, you must also enable \22Allow subdissectors to reassemble TCP streams\22 in the TCP protocol settings.\00", align 1
@yami_desegment = internal global i8 1, align 1
@yami_handle = internal global ptr null, align 8

; Function Attrs: null_pointer_is_valid sspstrong uwtable
define hidden void @proto_register_yami() #0 {
  %1 = alloca ptr, align 8
  call void @llvm.lifetime.start.p0(i64 8, ptr %1) #3
  %2 = call i32 @proto_register_protocol(ptr noundef @.str.37, ptr noundef @.str.38, ptr noundef @.str.39)
  store i32 %2, ptr @proto_yami, align 4
  %3 = load i32, ptr @proto_yami, align 4
  call void @proto_register_field_array(i32 noundef %3, ptr noundef @proto_register_yami.hf, i32 noundef 17)
  call void @proto_register_subtree_array(ptr noundef @proto_register_yami.ett, i32 noundef 4)
  %4 = load i32, ptr @proto_yami, align 4
  %5 = call ptr @prefs_register_protocol(i32 noundef %4, ptr noundef null)
  store ptr %5, ptr %1, align 8
  %6 = load ptr, ptr %1, align 8
  call void @prefs_register_bool_preference(ptr noundef %6, ptr noundef @.str.40, ptr noundef @.str.41, ptr noundef @.str.42, ptr noundef @yami_desegment)
  %7 = load i32, ptr @proto_yami, align 4
  %8 = call ptr @register_dissector(ptr noundef @.str.39, ptr noundef @dissect_yami, i32 noundef %7)
  store ptr %8, ptr @yami_handle, align 8
  call void @llvm.lifetime.end.p0(i64 8, ptr %1) #3
  ret void
}