; Function Attrs: null_pointer_is_valid sspstrong uwtable
define hidden void @proto_register_yami() local_unnamed_addr #0 {
  %1 = tail call i32 @proto_register_protocol(ptr noundef nonnull @.str.37, ptr noundef nonnull @.str.38, ptr noundef nonnull @.str.39)
  store i32 %1, ptr @proto_yami, align 4
  tail call void @proto_register_field_array(i32 noundef %1, ptr noundef nonnull @proto_register_yami.hf, i32 noundef 17)
  tail call void @proto_register_subtree_array(ptr noundef nonnull @proto_register_yami.ett, i32 noundef 4)
  %2 = load i32, ptr @proto_yami, align 4
  %3 = tail call ptr @prefs_register_protocol(i32 noundef %2, ptr noundef null)
  tail call void @prefs_register_bool_preference(ptr noundef %3, ptr noundef nonnull @.str.40, ptr noundef nonnull @.str.41, ptr noundef nonnull @.str.42, ptr noundef nonnull @yami_desegment)
  %4 = load i32, ptr @proto_yami, align 4
  %5 = tail call ptr @register_dissector(ptr noundef nonnull @.str.39, ptr noundef nonnull @dissect_yami, i32 noundef %4)
  store ptr %5, ptr @yami_handle, align 8
  ret void
}